; Function Attrs: mustprogress uwtable
define hidden noundef zeroext i1 @_Z11pyopencv_toIbEbP7_objectRT_RK7ArgInfo(ptr noundef %0, ptr nocapture noundef nonnull writeonly align 1 dereferenceable(1) %1, ptr nocapture noundef nonnull readonly align 8 dereferenceable(12) %2) local_unnamed_addr #3 personality ptr @__gxx_personality_v0 {
  %4 = alloca i8, align 1
  %5 = icmp eq ptr %0, null
  %6 = icmp eq ptr %0, @_Py_NoneStruct
  %or.cond = or i1 %5, %6
  br i1 %or.cond, label %38, label %7

7:                                                ; preds = %3
  %8 = load ptr, ptr @opencv_ARRAY_API, align 8
  %9 = getelementptr inbounds i8, ptr %8, i64 64
  %10 = load ptr, ptr %9, align 8
  %11 = getelementptr i8, ptr %0, i64 8
  %.val2.i = load ptr, ptr %11, align 8
  %.not.i.i = icmp eq ptr %.val2.i, %10
  br i1 %.not.i.i, label %_Z6isBoolP7_object.exit.thread, label %12

12:                                               ; preds = %7
  %13 = invoke i32 @PyType_IsSubtype(ptr noundef %.val2.i, ptr noundef %10)
          to label %_ZL19_PyObject_TypeCheckP7_objectP11_typeobject.exit.i unwind label %14

_ZL19_PyObject_TypeCheckP7_objectP11_typeobject.exit.i: ; preds = %12
  %.not4.i = icmp eq i32 %13, 0
  br i1 %.not4.i, label %_Z6isBoolP7_object.exit, label %_Z6isBoolP7_object.exit.thread

14:                                               ; preds = %12
  %15 = landingpad { ptr, i32 }
          catch ptr null
  %16 = extractvalue { ptr, i32 } %15, 0
  tail call void @__clang_call_terminate(ptr %16) #13
  unreachable

_Z6isBoolP7_object.exit:                          ; preds = %_ZL19_PyObject_TypeCheckP7_objectP11_typeobject.exit.i
  %.val.i = load ptr, ptr %11, align 8
  %17 = icmp eq ptr %.val.i, @PyBool_Type
  br i1 %17, label %_Z6isBoolP7_object.exit.thread, label %18

18:                                               ; preds = %_Z6isBoolP7_object.exit
  %19 = getelementptr i8, ptr %.val.i, i64 168
  %.val = load i64, ptr %19, align 8
  %20 = and i64 %.val, 16777216
  %.not = icmp eq i64 %20, 0
  br i1 %.not, label %21, label %_Z6isBoolP7_object.exit.thread

21:                                               ; preds = %18
  %22 = load ptr, ptr @opencv_ARRAY_API, align 8
  %23 = getelementptr inbounds i8, ptr %22, i64 96
  %24 = load ptr, ptr %23, align 8
  %.not.i = icmp eq ptr %.val.i, %24
  br i1 %.not.i, label %_Z6isBoolP7_object.exit.thread, label %_ZL19_PyObject_TypeCheckP7_objectP11_typeobject.exit

_ZL19_PyObject_TypeCheckP7_objectP11_typeobject.exit: ; preds = %21
  %25 = tail call i32 @PyType_IsSubtype(ptr noundef nonnull %.val.i, ptr noundef %24)
  %.not14 = icmp eq i32 %25, 0
  br i1 %.not14, label %35, label %_Z6isBoolP7_object.exit.thread

_Z6isBoolP7_object.exit.thread:                   ; preds = %21, %7, %_ZL19_PyObject_TypeCheckP7_objectP11_typeobject.exit.i, %_ZL19_PyObject_TypeCheckP7_objectP11_typeobject.exit, %18, %_Z6isBoolP7_object.exit
  store i8 0, ptr %4, align 1
  %26 = load ptr, ptr @opencv_ARRAY_API, align 8
  %27 = getelementptr inbounds i8, ptr %26, i64 1432
  %28 = load ptr, ptr %27, align 8
  %29 = call noundef i32 %28(ptr noundef nonnull %0, ptr noundef nonnull %4)
  %30 = icmp sgt i32 %29, -1
  br i1 %30, label %31, label %35

31:                                               ; preds = %_Z6isBoolP7_object.exit.thread
  %32 = load i8, ptr %4, align 1
  %33 = icmp eq i8 %32, 1
  %34 = zext i1 %33 to i8
  store i8 %34, ptr %1, align 1
  br label %38

35:                                               ; preds = %_Z6isBoolP7_object.exit.thread, %_ZL19_PyObject_TypeCheckP7_objectP11_typeobject.exit
  %36 = load ptr, ptr %2, align 8
  %37 = call noundef i32 (ptr, ...) @_Z7failmsgPKcz(ptr noundef nonnull @.str.11, ptr noundef %36)
  br label %38

38:                                               ; preds = %3, %35, %31
  %.0 = phi i1 [ true, %31 ], [ false, %35 ], [ true, %3 ]
  ret i1 %.0
}